; Function Attrs: mustprogress uwtable
define void @_ZNK32pxrInternal_v0_24__pxrReserved__17SdfVariantSetSpec7GetNameB5cxx11Ev(ptr dead_on_unwind noalias writable sret(%"class.std::__cxx11::basic_string") align 8 %0, ptr noundef nonnull align 8 dereferenceable(8) %1) local_unnamed_addr #0 align 2 personality ptr @__gxx_personality_v0 {
  %3 = alloca %"class.pxrInternal_v0_24__pxrReserved__::SdfPath", align 4
  call void @_ZNK32pxrInternal_v0_24__pxrReserved__7SdfSpec7GetPathEv(ptr dead_on_unwind nonnull writable sret(%"class.pxrInternal_v0_24__pxrReserved__::SdfPath") align 4 %3, ptr noundef nonnull align 8 dereferenceable(8) %1)
  %4 = invoke noundef nonnull align 8 dereferenceable(32) ptr @_ZNK32pxrInternal_v0_24__pxrReserved__7SdfPath7GetNameB5cxx11Ev(ptr noundef nonnull align 4 dereferenceable(8) %3)
          to label %5 unwind label %25

5:                                                ; preds = %2
  invoke void @_ZNSt7__cxx1112basic_stringIcSt11char_traitsIcESaIcEEC1ERKS4_(ptr noundef nonnull align 8 dereferenceable(32) %0, ptr noundef nonnull align 8 dereferenceable(32) %4)
          to label %6 unwind label %25

6:                                                ; preds = %5
  %7 = load i32, ptr %3, align 4
  %.not.i.i = icmp eq i32 %7, 0
  br i1 %.not.i.i, label %_ZN32pxrInternal_v0_24__pxrReserved__7SdfPathD2Ev.exit, label %8

8:                                                ; preds = %6
  %9 = and i32 %7, 255
  %10 = lshr i32 %7, 8
  %11 = zext nneg i32 %9 to i64
  %12 = getelementptr inbounds [257 x ptr], ptr @_ZN32pxrInternal_v0_24__pxrReserved__8Sdf_PoolINS_15Sdf_PathPrimTagELj24ELj8ELj16384EE13_regionStartsE, i64 0, i64 %11
  %13 = load ptr, ptr %12, align 8
  %14 = mul nuw nsw i32 %10, 24
  %15 = zext nneg i32 %14 to i64
  %16 = getelementptr inbounds i8, ptr %13, i64 %15
  %17 = getelementptr inbounds nuw i8, ptr %16, i64 8
  %18 = atomicrmw sub ptr %17, i32 1 seq_cst, align 4
  %19 = and i32 %18, 2147483647
  %20 = icmp eq i32 %19, 1
  br i1 %20, label %21, label %_ZN32pxrInternal_v0_24__pxrReserved__7SdfPathD2Ev.exit

21:                                               ; preds = %8
  invoke void @_ZNK32pxrInternal_v0_24__pxrReserved__12Sdf_PathNode8_DestroyEv(ptr noundef nonnull align 8 dereferenceable(16) %16)
          to label %_ZN32pxrInternal_v0_24__pxrReserved__7SdfPathD2Ev.exit unwind label %22

22:                                               ; preds = %21
  %23 = landingpad { ptr, i32 }
          catch ptr null
  %24 = extractvalue { ptr, i32 } %23, 0
  call void @__clang_call_terminate(ptr %24) #16
  unreachable

_ZN32pxrInternal_v0_24__pxrReserved__7SdfPathD2Ev.exit: ; preds = %6, %8, %21
  ret void

25:                                               ; preds = %5, %2
  %26 = landingpad { ptr, i32 }
          cleanup
  call void @_ZN32pxrInternal_v0_24__pxrReserved__7SdfPathD2Ev(ptr noundef nonnull align 4 dereferenceable(8) %3) #15
  resume { ptr, i32 } %26
}